; Function Attrs: mustprogress uwtable
define void @_ZN7rocksdb12experimental19SuggestCompactRangeEPNS_2DBEPKNS_5SliceES5_(ptr dead_on_unwind noalias writable sret(%"class.rocksdb::Status") align 8 %0, ptr noundef %1, ptr noundef %2, ptr noundef %3) local_unnamed_addr #4 {
_ZN7rocksdb12experimental19SuggestCompactRangeEPNS_2DBEPNS_18ColumnFamilyHandleEPKNS_5SliceES7_.exit:
  %4 = load ptr, ptr %1, align 8, !tbaa !21
  %5 = getelementptr inbounds nuw i8, ptr %4, i64 1080
  %6 = load ptr, ptr %5, align 8
  %7 = tail call noundef ptr %6(ptr noundef nonnull align 8 dereferenceable(8) %1)
  %8 = load ptr, ptr %1, align 8, !tbaa !21, !noalias !23
  %9 = getelementptr inbounds nuw i8, ptr %8, i64 1120
  %10 = load ptr, ptr %9, align 8, !noalias !23
  tail call void %10(ptr dead_on_unwind writable sret(%"class.rocksdb::Status") align 8 %0, ptr noundef nonnull align 8 dereferenceable(8) %1, ptr noundef %7, ptr noundef %2, ptr noundef %3)
  ret void
}